; ModuleID = '31/371.c'
source_filename = "31/371.c"
target datalayout = "e-m:e-p270:32:32-p271:32:32-p272:64:64-i64:64-f80:128-n8:16:32:64-S128"
target triple = "x86_64-pc-linux-gnu"

%struct.Student = type { [200 x i8], %struct.Student* }

@n = common dso_local global i32 0, align 4
@.str = private unnamed_addr constant [4 x i8] c"end\00", align 1
@.str.1 = private unnamed_addr constant [4 x i8] c"%s\0A\00", align 1

; Function Attrs: noinline nounwind uwtable
define dso_local %struct.Student* @creat() #0 {
  %1 = alloca %struct.Student*, align 8
  %2 = alloca %struct.Student*, align 8
  %3 = alloca %struct.Student*, align 8
  store i32 0, i32* @n, align 4
  %4 = call noalias i8* @malloc(i64 100) #4
  %5 = bitcast i8* %4 to %struct.Student*
  store %struct.Student* %5, %struct.Student** %2, align 8
  store %struct.Student* %5, %struct.Student** %1, align 8
  %6 = load %struct.Student*, %struct.Student** %1, align 8
  %7 = getelementptr inbounds %struct.Student, %struct.Student* %6, i32 0, i32 0
  %8 = getelementptr inbounds [200 x i8], [200 x i8]* %7, i64 0, i64 0
  %9 = call i32 (i8*, ...) bitcast (i32 (...)* @gets to i32 (i8*, ...)*)(i8* %8)
  store %struct.Student* null, %struct.Student** %3, align 8
  br label %10

10:                                               ; preds = %28, %0
  %11 = load %struct.Student*, %struct.Student** %1, align 8
  %12 = getelementptr inbounds %struct.Student, %struct.Student* %11, i32 0, i32 0
  %13 = getelementptr inbounds [200 x i8], [200 x i8]* %12, i64 0, i64 0
  %14 = call i32 @strcmp(i8* %13, i8* getelementptr inbounds ([4 x i8], [4 x i8]* @.str, i64 0, i64 0)) #5
  %15 = icmp ne i32 %14, 0
  br i1 %15, label %16, label %36

16:                                               ; preds = %10
  %17 = load i32, i32* @n, align 4
  %18 = add nsw i32 %17, 1
  store i32 %18, i32* @n, align 4
  %19 = load i32, i32* @n, align 4
  %20 = icmp eq i32 %19, 1
  br i1 %20, label %21, label %24

21:                                               ; preds = %16
  %22 = load %struct.Student*, %struct.Student** %1, align 8
  %23 = getelementptr inbounds %struct.Student, %struct.Student* %22, i32 0, i32 1
  store %struct.Student* null, %struct.Student** %23, align 8
  br label %28

24:                                               ; preds = %16
  %25 = load %struct.Student*, %struct.Student** %2, align 8
  %26 = load %struct.Student*, %struct.Student** %1, align 8
  %27 = getelementptr inbounds %struct.Student, %struct.Student* %26, i32 0, i32 1
  store %struct.Student* %25, %struct.Student** %27, align 8
  br label %28

28:                                               ; preds = %24, %21
  %29 = load %struct.Student*, %struct.Student** %1, align 8
  store %struct.Student* %29, %struct.Student** %2, align 8
  %30 = call noalias i8* @malloc(i64 100) #4
  %31 = bitcast i8* %30 to %struct.Student*
  store %struct.Student* %31, %struct.Student** %1, align 8
  %32 = load %struct.Student*, %struct.Student** %1, align 8
  %33 = getelementptr inbounds %struct.Student, %struct.Student* %32, i32 0, i32 0
  %34 = getelementptr inbounds [200 x i8], [200 x i8]* %33, i64 0, i64 0
  %35 = call i32 (i8*, ...) bitcast (i32 (...)* @gets to i32 (i8*, ...)*)(i8* %34)
  br label %10

36:                                               ; preds = %10
  %37 = load %struct.Student*, %struct.Student** %2, align 8
  store %struct.Student* %37, %struct.Student** %3, align 8
  %38 = load %struct.Student*, %struct.Student** %3, align 8
  ret %struct.Student* %38
}

; Function Attrs: nounwind
declare dso_local noalias i8* @malloc(i64) #1

declare dso_local i32 @gets(...) #2

; Function Attrs: nounwind readonly
declare dso_local i32 @strcmp(i8*, i8*) #3

; Function Attrs: noinline nounwind uwtable
define dso_local void @print(%struct.Student* %0) #0 {
  %2 = alloca %struct.Student*, align 8
  %3 = alloca %struct.Student*, align 8
  store %struct.Student* %0, %struct.Student** %2, align 8
  %4 = load %struct.Student*, %struct.Student** %2, align 8
  store %struct.Student* %4, %struct.Student** %3, align 8
  %5 = load %struct.Student*, %struct.Student** %2, align 8
  %6 = icmp ne %struct.Student* %5, null
  br i1 %6, label %7, label %20

7:                                                ; preds = %1
  br label %8

8:                                                ; preds = %16, %7
  %9 = load %struct.Student*, %struct.Student** %3, align 8
  %10 = getelementptr inbounds %struct.Student, %struct.Student* %9, i32 0, i32 0
  %11 = getelementptr inbounds [200 x i8], [200 x i8]* %10, i64 0, i64 0
  %12 = call i32 (i8*, ...) @printf(i8* getelementptr inbounds ([4 x i8], [4 x i8]* @.str.1, i64 0, i64 0), i8* %11)
  %13 = load %struct.Student*, %struct.Student** %3, align 8
  %14 = getelementptr inbounds %struct.Student, %struct.Student* %13, i32 0, i32 1
  %15 = load %struct.Student*, %struct.Student** %14, align 8
  store %struct.Student* %15, %struct.Student** %3, align 8
  br label %16

16:                                               ; preds = %8
  %17 = load %struct.Student*, %struct.Student** %3, align 8
  %18 = icmp ne %struct.Student* %17, null
  br i1 %18, label %8, label %19

19:                                               ; preds = %16
  br label %20

20:                                               ; preds = %19, %1
  ret void
}

declare dso_local i32 @printf(i8*, ...) #2

; Function Attrs: noinline nounwind uwtable
define dso_local i32 @main() #0 {
  %1 = alloca i32, align 4
  %2 = alloca %struct.Student*, align 8
  store i32 0, i32* %1, align 4
  %3 = call %struct.Student* @creat()
  store %struct.Student* %3, %struct.Student** %2, align 8
  %4 = load %struct.Student*, %struct.Student** %2, align 8
  call void @print(%struct.Student* %4)
  ret i32 0
}


!llvm.module.flags = !{!0}
!llvm.ident = !{!1}

!0 = !{i32 1, !"wchar_size", i32 4}
!1 = !{!"clang version 10.0.0-4ubuntu1 "}
